target datalayout = "e-m:e-p270:32:32-p271:32:32-p272:64:64-i64:64-i128:128-f80:128-n8:16:32:64-S128"
target triple = "x86_64-pc-linux-gnu"

%struct.ewah_bitmap = type { ptr, i64, i64, i64, ptr }

; Function Attrs: inlinehint nounwind uwtable
define internal i64 @default_bswap64(i64 noundef %0) #2 {
  %2 = alloca i64, align 8
  store i64 %0, ptr %2, align 8, !tbaa !10
  %3 = load i64, ptr %2, align 8, !tbaa !10
  %4 = and i64 %3, 255
  %5 = shl i64 %4, 56
  %6 = load i64, ptr %2, align 8, !tbaa !10
  %7 = and i64 %6, 65280
  %8 = shl i64 %7, 40
  %9 = or i64 %5, %8
  %10 = load i64, ptr %2, align 8, !tbaa !10
  %11 = and i64 %10, 16711680
  %12 = shl i64 %11, 24
  %13 = or i64 %9, %12
  %14 = load i64, ptr %2, align 8, !tbaa !10
  %15 = and i64 %14, 4278190080
  %16 = shl i64 %15, 8
  %17 = or i64 %13, %16
  %18 = load i64, ptr %2, align 8, !tbaa !10
  %19 = and i64 %18, 1095216660480
  %20 = lshr i64 %19, 8
  %21 = or i64 %17, %20
  %22 = load i64, ptr %2, align 8, !tbaa !10
  %23 = and i64 %22, 280375465082880
  %24 = lshr i64 %23, 24
  %25 = or i64 %21, %24
  %26 = load i64, ptr %2, align 8, !tbaa !10
  %27 = and i64 %26, 71776119061217280
  %28 = lshr i64 %27, 40
  %29 = or i64 %25, %28
  %30 = load i64, ptr %2, align 8, !tbaa !10
  %31 = and i64 %30, -72057594037927936
  %32 = lshr i64 %31, 56
  %33 = or i64 %29, %32
  ret i64 %33
}

; Function Attrs: inlinehint nounwind uwtable
define internal i32 @default_swab32(i32 noundef %0) #2 {
  %2 = alloca i32, align 4
  store i32 %0, ptr %2, align 4, !tbaa !15
  %3 = load i32, ptr %2, align 4, !tbaa !15
  %4 = and i32 %3, -16777216
  %5 = lshr i32 %4, 24
  %6 = load i32, ptr %2, align 4, !tbaa !15
  %7 = and i32 %6, 16711680
  %8 = lshr i32 %7, 8
  %9 = or i32 %5, %8
  %10 = load i32, ptr %2, align 4, !tbaa !15
  %11 = and i32 %10, 65280
  %12 = shl i32 %11, 8
  %13 = or i32 %9, %12
  %14 = load i32, ptr %2, align 4, !tbaa !15
  %15 = and i32 %14, 255
  %16 = shl i32 %15, 24
  %17 = or i32 %13, %16
  ret i32 %17
}

; Function Attrs: inlinehint nounwind uwtable
define internal i64 @git_bswap64(i64 noundef %0) #2 {
  %2 = alloca i64, align 8
  %3 = alloca i64, align 8
  store i64 %0, ptr %2, align 8, !tbaa !10
  call void @llvm.lifetime.start.p0(i64 8, ptr %3) #7
  %4 = load i64, ptr %2, align 8, !tbaa !10
  %5 = call i1 @llvm.is.constant.i64(i64 %4)
  br i1 %5, label %6, label %9

6:                                                ; preds = %1
  %7 = load i64, ptr %2, align 8, !tbaa !10
  %8 = call i64 @default_bswap64(i64 noundef %7)
  store i64 %8, ptr %3, align 8, !tbaa !10
  br label %12

9:                                                ; preds = %1
  %10 = load i64, ptr %2, align 8, !tbaa !10
  %11 = call i64 asm "bswap ${0:q}", "=r,0,~{dirflag},~{fpsr},~{flags}"(i64 %10) #8, !srcloc !26
  store i64 %11, ptr %3, align 8, !tbaa !10
  br label %12

12:                                               ; preds = %9, %6
  %13 = load i64, ptr %3, align 8, !tbaa !10
  call void @llvm.lifetime.end.p0(i64 8, ptr %3) #7
  ret i64 %13
}

; Function Attrs: inlinehint nounwind uwtable
define internal i32 @git_bswap32(i32 noundef %0) #2 {
  %2 = alloca i32, align 4
  %3 = alloca i32, align 4
  store i32 %0, ptr %2, align 4, !tbaa !15
  call void @llvm.lifetime.start.p0(i64 4, ptr %3) #7
  %4 = load i32, ptr %2, align 4, !tbaa !15
  %5 = call i1 @llvm.is.constant.i32(i32 %4)
  br i1 %5, label %6, label %9

6:                                                ; preds = %1
  %7 = load i32, ptr %2, align 4, !tbaa !15
  %8 = call i32 @default_swab32(i32 noundef %7)
  store i32 %8, ptr %3, align 4, !tbaa !15
  br label %12

9:                                                ; preds = %1
  %10 = load i32, ptr %2, align 4, !tbaa !15
  %11 = call i32 asm "bswap $0", "=r,0,~{dirflag},~{fpsr},~{flags}"(i32 %10) #8, !srcloc !25
  store i32 %11, ptr %3, align 4, !tbaa !15
  br label %12

12:                                               ; preds = %9, %6
  %13 = load i32, ptr %3, align 4, !tbaa !15
  call void @llvm.lifetime.end.p0(i64 4, ptr %3) #7
  ret i32 %13
}

; Function Attrs: nounwind uwtable
define dso_local i32 @ewah_serialize_to(ptr noundef %0, ptr noundef %1, ptr noundef %2) #0 {
  %4 = alloca i32, align 4
  %5 = alloca ptr, align 8
  %6 = alloca ptr, align 8
  %7 = alloca ptr, align 8
  %8 = alloca i64, align 8
  %9 = alloca [2048 x i64], align 16
  %10 = alloca i64, align 8
  %11 = alloca i32, align 4
  %12 = alloca i32, align 4
  %13 = alloca i32, align 4
  %14 = alloca ptr, align 8
  %15 = alloca i64, align 8
  %16 = alloca i32, align 4
  store ptr %0, ptr %5, align 8, !tbaa !4
  store ptr %1, ptr %6, align 8, !tbaa !9
  store ptr %2, ptr %7, align 8, !tbaa !9
  call void @llvm.lifetime.start.p0(i64 8, ptr %8) #7
  call void @llvm.lifetime.start.p0(i64 16384, ptr %9) #7
  call void @llvm.lifetime.start.p0(i64 8, ptr %10) #7
  store i64 2048, ptr %10, align 8, !tbaa !10
  call void @llvm.lifetime.start.p0(i64 4, ptr %11) #7
  call void @llvm.lifetime.start.p0(i64 4, ptr %12) #7
  call void @llvm.lifetime.start.p0(i64 4, ptr %13) #7
  call void @llvm.lifetime.start.p0(i64 8, ptr %14) #7
  call void @llvm.lifetime.start.p0(i64 8, ptr %15) #7
  %17 = load ptr, ptr %5, align 8, !tbaa !4
  %18 = getelementptr inbounds nuw %struct.ewah_bitmap, ptr %17, i32 0, i32 3
  %19 = load i64, ptr %18, align 8, !tbaa !12
  %20 = trunc i64 %19 to i32
  %21 = call i32 @git_bswap32(i32 noundef %20)
  store i32 %21, ptr %11, align 4, !tbaa !15
  %22 = load ptr, ptr %6, align 8, !tbaa !9
  %23 = load ptr, ptr %7, align 8, !tbaa !9
  %24 = call i32 %22(ptr noundef %23, ptr noundef %11, i64 noundef 4)
  %25 = icmp ne i32 %24, 4
  br i1 %25, label %26, label %27

26:                                               ; preds = %3
  store i32 -1, ptr %4, align 4
  store i32 1, ptr %16, align 4
  br label %134

27:                                               ; preds = %3
  %28 = load ptr, ptr %5, align 8, !tbaa !4
  %29 = getelementptr inbounds nuw %struct.ewah_bitmap, ptr %28, i32 0, i32 1
  %30 = load i64, ptr %29, align 8, !tbaa !17
  %31 = trunc i64 %30 to i32
  %32 = call i32 @git_bswap32(i32 noundef %31)
  store i32 %32, ptr %12, align 4, !tbaa !15
  %33 = load ptr, ptr %6, align 8, !tbaa !9
  %34 = load ptr, ptr %7, align 8, !tbaa !9
  %35 = call i32 %33(ptr noundef %34, ptr noundef %12, i64 noundef 4)
  %36 = icmp ne i32 %35, 4
  br i1 %36, label %37, label %38

37:                                               ; preds = %27
  store i32 -1, ptr %4, align 4
  store i32 1, ptr %16, align 4
  br label %134

38:                                               ; preds = %27
  %39 = load ptr, ptr %5, align 8, !tbaa !4
  %40 = getelementptr inbounds nuw %struct.ewah_bitmap, ptr %39, i32 0, i32 0
  %41 = load ptr, ptr %40, align 8, !tbaa !18
  store ptr %41, ptr %14, align 8, !tbaa !19
  %42 = load ptr, ptr %5, align 8, !tbaa !4
  %43 = getelementptr inbounds nuw %struct.ewah_bitmap, ptr %42, i32 0, i32 1
  %44 = load i64, ptr %43, align 8, !tbaa !17
  store i64 %44, ptr %15, align 8, !tbaa !10
  br label %45

45:                                               ; preds = %71, %38
  %46 = load i64, ptr %15, align 8, !tbaa !10
  %47 = icmp uge i64 %46, 2048
  br i1 %47, label %48, label %74

48:                                               ; preds = %45
  store i64 0, ptr %8, align 8, !tbaa !10
  br label %49

49:                                               ; preds = %58, %48
  %50 = load i64, ptr %8, align 8, !tbaa !10
  %51 = icmp ult i64 %50, 2048
  br i1 %51, label %52, label %63

52:                                               ; preds = %49
  %53 = load ptr, ptr %14, align 8, !tbaa !19
  %54 = load i64, ptr %53, align 8, !tbaa !10
  %55 = call i64 @git_bswap64(i64 noundef %54)
  %56 = load i64, ptr %8, align 8, !tbaa !10
  %57 = getelementptr inbounds nuw [2048 x i64], ptr %9, i64 0, i64 %56
  store i64 %55, ptr %57, align 8, !tbaa !10
  br label %58

58:                                               ; preds = %52
  %59 = load i64, ptr %8, align 8, !tbaa !10
  %60 = add i64 %59, 1
  store i64 %60, ptr %8, align 8, !tbaa !10
  %61 = load ptr, ptr %14, align 8, !tbaa !19
  %62 = getelementptr inbounds nuw i64, ptr %61, i32 1
  store ptr %62, ptr %14, align 8, !tbaa !19
  br label %49, !llvm.loop !20

63:                                               ; preds = %49
  %64 = load ptr, ptr %6, align 8, !tbaa !9
  %65 = load ptr, ptr %7, align 8, !tbaa !9
  %66 = getelementptr inbounds [2048 x i64], ptr %9, i64 0, i64 0
  %67 = call i32 %64(ptr noundef %65, ptr noundef %66, i64 noundef 16384)
  %68 = sext i32 %67 to i64
  %69 = icmp ne i64 %68, 16384
  br i1 %69, label %70, label %71

70:                                               ; preds = %63
  store i32 -1, ptr %4, align 4
  store i32 1, ptr %16, align 4
  br label %134

71:                                               ; preds = %63
  %72 = load i64, ptr %15, align 8, !tbaa !10
  %73 = sub i64 %72, 2048
  store i64 %73, ptr %15, align 8, !tbaa !10
  br label %45, !llvm.loop !22

74:                                               ; preds = %45
  %75 = load i64, ptr %15, align 8, !tbaa !10
  %76 = icmp ne i64 %75, 0
  br i1 %76, label %77, label %106

77:                                               ; preds = %74
  store i64 0, ptr %8, align 8, !tbaa !10
  br label %78

78:                                               ; preds = %88, %77
  %79 = load i64, ptr %8, align 8, !tbaa !10
  %80 = load i64, ptr %15, align 8, !tbaa !10
  %81 = icmp ult i64 %79, %80
  br i1 %81, label %82, label %93

82:                                               ; preds = %78
  %83 = load ptr, ptr %14, align 8, !tbaa !19
  %84 = load i64, ptr %83, align 8, !tbaa !10
  %85 = call i64 @git_bswap64(i64 noundef %84)
  %86 = load i64, ptr %8, align 8, !tbaa !10
  %87 = getelementptr inbounds nuw [2048 x i64], ptr %9, i64 0, i64 %86
  store i64 %85, ptr %87, align 8, !tbaa !10
  br label %88

88:                                               ; preds = %82
  %89 = load i64, ptr %8, align 8, !tbaa !10
  %90 = add i64 %89, 1
  store i64 %90, ptr %8, align 8, !tbaa !10
  %91 = load ptr, ptr %14, align 8, !tbaa !19
  %92 = getelementptr inbounds nuw i64, ptr %91, i32 1
  store ptr %92, ptr %14, align 8, !tbaa !19
  br label %78, !llvm.loop !23

93:                                               ; preds = %78
  %94 = load ptr, ptr %6, align 8, !tbaa !9
  %95 = load ptr, ptr %7, align 8, !tbaa !9
  %96 = getelementptr inbounds [2048 x i64], ptr %9, i64 0, i64 0
  %97 = load i64, ptr %15, align 8, !tbaa !10
  %98 = mul i64 %97, 8
  %99 = call i32 %94(ptr noundef %95, ptr noundef %96, i64 noundef %98)
  %100 = sext i32 %99 to i64
  %101 = load i64, ptr %15, align 8, !tbaa !10
  %102 = mul i64 %101, 8
  %103 = icmp ne i64 %100, %102
  br i1 %103, label %104, label %105

104:                                              ; preds = %93
  store i32 -1, ptr %4, align 4
  store i32 1, ptr %16, align 4
  br label %134

105:                                              ; preds = %93
  br label %106

106:                                              ; preds = %105, %74
  %107 = load ptr, ptr %5, align 8, !tbaa !4
  %108 = getelementptr inbounds nuw %struct.ewah_bitmap, ptr %107, i32 0, i32 4
  %109 = load ptr, ptr %108, align 8, !tbaa !24
  %110 = load ptr, ptr %5, align 8, !tbaa !4
  %111 = getelementptr inbounds nuw %struct.ewah_bitmap, ptr %110, i32 0, i32 0
  %112 = load ptr, ptr %111, align 8, !tbaa !18
  %113 = ptrtoint ptr %109 to i64
  %114 = ptrtoint ptr %112 to i64
  %115 = sub i64 %113, %114
  %116 = trunc i64 %115 to i32
  store i32 %116, ptr %13, align 4, !tbaa !15
  %117 = load i32, ptr %13, align 4, !tbaa !15
  %118 = zext i32 %117 to i64
  %119 = udiv i64 %118, 8
  %120 = trunc i64 %119 to i32
  %121 = call i32 @git_bswap32(i32 noundef %120)
  store i32 %121, ptr %13, align 4, !tbaa !15
  %122 = load ptr, ptr %6, align 8, !tbaa !9
  %123 = load ptr, ptr %7, align 8, !tbaa !9
  %124 = call i32 %122(ptr noundef %123, ptr noundef %13, i64 noundef 4)
  %125 = icmp ne i32 %124, 4
  br i1 %125, label %126, label %127

126:                                              ; preds = %106
  store i32 -1, ptr %4, align 4
  store i32 1, ptr %16, align 4
  br label %134

127:                                              ; preds = %106
  %128 = load ptr, ptr %5, align 8, !tbaa !4
  %129 = getelementptr inbounds nuw %struct.ewah_bitmap, ptr %128, i32 0, i32 1
  %130 = load i64, ptr %129, align 8, !tbaa !17
  %131 = mul i64 %130, 8
  %132 = add i64 12, %131
  %133 = trunc i64 %132 to i32
  store i32 %133, ptr %4, align 4
  store i32 1, ptr %16, align 4
  br label %134

134:                                              ; preds = %127, %126, %104, %70, %37, %26
  call void @llvm.lifetime.end.p0(i64 8, ptr %15) #7
  call void @llvm.lifetime.end.p0(i64 8, ptr %14) #7
  call void @llvm.lifetime.end.p0(i64 4, ptr %13) #7
  call void @llvm.lifetime.end.p0(i64 4, ptr %12) #7
  call void @llvm.lifetime.end.p0(i64 4, ptr %11) #7
  call void @llvm.lifetime.end.p0(i64 8, ptr %10) #7
  call void @llvm.lifetime.end.p0(i64 16384, ptr %9) #7
  call void @llvm.lifetime.end.p0(i64 8, ptr %8) #7
  %135 = load i32, ptr %4, align 4
  ret i32 %135
}