; Function Attrs: nounwind uwtable
define dso_local range(i32 12, 5) i32 @ewah_serialize_to(ptr noundef readonly captures(none) %0, ptr noundef readonly captures(none) %1, ptr noundef %2) local_unnamed_addr #0 {
git_bswap32.exit:
  %3 = alloca [2048 x i64], align 16
  %4 = alloca i32, align 4
  %5 = alloca i32, align 4
  %6 = alloca i32, align 4
  call void @llvm.lifetime.start.p0(i64 16384, ptr nonnull %3) #5
  call void @llvm.lifetime.start.p0(i64 4, ptr nonnull %4) #5
  call void @llvm.lifetime.start.p0(i64 4, ptr nonnull %5) #5
  call void @llvm.lifetime.start.p0(i64 4, ptr nonnull %6) #5
  %7 = getelementptr inbounds nuw i8, ptr %0, i64 24
  %8 = load i64, ptr %7, align 8, !tbaa !4
  %9 = trunc i64 %8 to i32
  %10 = tail call i32 asm "bswap $0", "=r,0,~{dirflag},~{fpsr},~{flags}"(i32 %9) #6, !srcloc !11
  store i32 %10, ptr %4, align 4, !tbaa !12
  %11 = call i32 %1(ptr noundef %2, ptr noundef nonnull %4, i64 noundef 4) #5
  %.not = icmp eq i32 %11, 4
  br i1 %.not, label %git_bswap32.exit43, label %.loopexit

git_bswap32.exit43:                               ; preds = %git_bswap32.exit
  %12 = getelementptr inbounds nuw i8, ptr %0, i64 8
  %13 = load i64, ptr %12, align 8, !tbaa !14
  %14 = trunc i64 %13 to i32
  %15 = call i32 asm "bswap $0", "=r,0,~{dirflag},~{fpsr},~{flags}"(i32 %14) #6, !srcloc !11
  store i32 %15, ptr %5, align 4, !tbaa !12
  %16 = call i32 %1(ptr noundef %2, ptr noundef nonnull %5, i64 noundef 4) #5
  %.not37 = icmp eq i32 %16, 4
  br i1 %.not37, label %17, label %.loopexit

17:                                               ; preds = %git_bswap32.exit43
  %18 = load ptr, ptr %0, align 8, !tbaa !15
  %19 = load i64, ptr %12, align 8, !tbaa !14
  %20 = icmp ugt i64 %19, 2047
  br i1 %20, label %.preheader49, label %._crit_edge

.preheader49:                                     ; preds = %17, %28
  %.055 = phi i64 [ %29, %28 ], [ %19, %17 ]
  %.03354 = phi ptr [ %25, %28 ], [ %18, %17 ]
  br label %git_bswap64.exit

git_bswap64.exit:                                 ; preds = %git_bswap64.exit, %.preheader49
  %.153 = phi ptr [ %.03354, %.preheader49 ], [ %25, %git_bswap64.exit ]
  %.03552 = phi i64 [ 0, %.preheader49 ], [ %24, %git_bswap64.exit ]
  %21 = load i64, ptr %.153, align 8, !tbaa !16
  %22 = call i64 asm "bswap ${0:q}", "=r,0,~{dirflag},~{fpsr},~{flags}"(i64 %21) #6, !srcloc !17
  %23 = getelementptr inbounds nuw [2048 x i64], ptr %3, i64 0, i64 %.03552
  store i64 %22, ptr %23, align 8, !tbaa !16
  %24 = add nuw nsw i64 %.03552, 1
  %25 = getelementptr inbounds nuw i8, ptr %.153, i64 8
  %exitcond.not = icmp eq i64 %24, 2048
  br i1 %exitcond.not, label %26, label %git_bswap64.exit, !llvm.loop !18

26:                                               ; preds = %git_bswap64.exit
  %27 = call i32 %1(ptr noundef %2, ptr noundef nonnull %3, i64 noundef 16384) #5
  %.not41 = icmp eq i32 %27, 16384
  br i1 %.not41, label %28, label %.loopexit

28:                                               ; preds = %26
  %29 = add i64 %.055, -2048
  %30 = icmp ugt i64 %29, 2047
  br i1 %30, label %.preheader49, label %._crit_edge, !llvm.loop !20

._crit_edge:                                      ; preds = %28, %17
  %.033.lcssa = phi ptr [ %18, %17 ], [ %25, %28 ]
  %.0.lcssa = phi i64 [ %19, %17 ], [ %29, %28 ]
  %.not38 = icmp eq i64 %.0.lcssa, 0
  br i1 %.not38, label %git_bswap32.exit48, label %.preheader

.preheader:                                       ; preds = %._crit_edge, %.preheader
  %.258 = phi ptr [ %35, %.preheader ], [ %.033.lcssa, %._crit_edge ]
  %.13657 = phi i64 [ %34, %.preheader ], [ 0, %._crit_edge ]
  %31 = load i64, ptr %.258, align 8, !tbaa !16
  %32 = call i64 asm "bswap ${0:q}", "=r,0,~{dirflag},~{fpsr},~{flags}"(i64 %31) #6, !srcloc !17
  %33 = getelementptr inbounds nuw [2048 x i64], ptr %3, i64 0, i64 %.13657
  store i64 %32, ptr %33, align 8, !tbaa !16
  %34 = add nuw i64 %.13657, 1
  %35 = getelementptr inbounds nuw i8, ptr %.258, i64 8
  %exitcond61.not = icmp eq i64 %34, %.0.lcssa
  br i1 %exitcond61.not, label %36, label %.preheader, !llvm.loop !21

36:                                               ; preds = %.preheader
  %37 = shl nuw nsw i64 %.0.lcssa, 3
  %38 = call i32 %1(ptr noundef %2, ptr noundef nonnull %3, i64 noundef %37) #5
  %39 = sext i32 %38 to i64
  %.not39 = icmp eq i64 %37, %39
  br i1 %.not39, label %git_bswap32.exit48, label %.loopexit

git_bswap32.exit48:                               ; preds = %._crit_edge, %36
  %40 = getelementptr inbounds nuw i8, ptr %0, i64 32
  %41 = load ptr, ptr %40, align 8, !tbaa !22
  %42 = ptrtoint ptr %41 to i64
  %43 = load ptr, ptr %0, align 8, !tbaa !15
  %44 = ptrtoint ptr %43 to i64
  %45 = sub i64 %42, %44
  %46 = trunc i64 %45 to i32
  %47 = lshr i32 %46, 3
  %48 = call i32 asm "bswap $0", "=r,0,~{dirflag},~{fpsr},~{flags}"(i32 %47) #6, !srcloc !11
  store i32 %48, ptr %6, align 4, !tbaa !12
  %49 = call i32 %1(ptr noundef %2, ptr noundef nonnull %6, i64 noundef 4) #5
  %.not40 = icmp eq i32 %49, 4
  br i1 %.not40, label %50, label %.loopexit

50:                                               ; preds = %git_bswap32.exit48
  %51 = load i64, ptr %12, align 8, !tbaa !14
  %.tr = trunc i64 %51 to i32
  %52 = shl i32 %.tr, 3
  %53 = add i32 %52, 12
  br label %.loopexit

.loopexit:                                        ; preds = %26, %git_bswap32.exit48, %36, %git_bswap32.exit43, %git_bswap32.exit, %50
  %.034 = phi i32 [ %53, %50 ], [ -1, %git_bswap32.exit ], [ -1, %git_bswap32.exit43 ], [ -1, %36 ], [ -1, %git_bswap32.exit48 ], [ -1, %26 ]
  call void @llvm.lifetime.end.p0(i64 4, ptr nonnull %6) #5
  call void @llvm.lifetime.end.p0(i64 4, ptr nonnull %5) #5
  call void @llvm.lifetime.end.p0(i64 4, ptr nonnull %4) #5
  call void @llvm.lifetime.end.p0(i64 16384, ptr nonnull %3) #5
  ret i32 %.034
}